target datalayout = "e-m:e-p270:32:32-p271:32:32-p272:64:64-i64:64-i128:128-f80:128-n8:16:32:64-S128"
target triple = "x86_64-pc-linux-gnu"

%struct._zend_executor_globals = type { %struct._zval_struct, %struct._zval_struct, [32 x ptr], ptr, ptr, %struct._zend_array, %struct._zend_array, ptr, i32, i32, ptr, ptr, ptr, ptr, ptr, ptr, i64, ptr, ptr, i32, i32, i64, i32, i32, i32, i8, i8, %struct.zend_atomic_bool_s, %struct.zend_atomic_bool_s, ptr, i64, ptr, ptr, %struct._zend_array, %struct._zend_array, i32, i8, %struct._zval_struct, %struct._zval_struct, %struct._zend_stack, %struct._zend_stack, %struct._zend_stack, ptr, i32, i32, i64, ptr, ptr, ptr, %struct._zend_objects_store, ptr, ptr, ptr, [3 x %struct._zend_op], ptr, i8, i8, i64, i32, i32, ptr, [16 x %struct._HashTableIterator], ptr, %union._zend_function, %struct._zend_op, %struct._zend_array, i64, %struct.zend_get_gc_buffer, ptr, ptr, ptr, i64, i8, i32, ptr, ptr, i64, %struct._zend_call_stack, i64, i64, [6 x ptr] }
%struct.zend_atomic_bool_s = type { i8 }
%struct._zval_struct = type { %union._zend_value, %union.anon, %union.anon.2 }
%union._zend_value = type { i64 }
%union.anon = type { i32 }
%union.anon.2 = type { i32 }
%struct._zend_stack = type { i32, i32, i32, ptr }
%struct._zend_objects_store = type { ptr, i32, i32, i32 }
%struct._HashTableIterator = type { ptr, i32, i32 }
%union._zend_function = type { %struct._zend_op_array }
%struct._zend_op_array = type { i8, [3 x i8], i32, ptr, ptr, ptr, i32, i32, ptr, ptr, ptr, ptr, i32, i32, i32, i32, ptr, ptr, ptr, ptr, ptr, i32, i32, ptr, ptr, ptr, i32, i32, i32, i32, ptr, ptr, [6 x ptr] }
%struct._zend_op = type { ptr, %union._znode_op, %union._znode_op, %union._znode_op, i32, i32, i8, i8, i8, i8 }
%union._znode_op = type { i32 }
%struct._zend_array = type { %struct._zend_refcounted_h, %union.anon.4, i32, %union.anon.6, i32, i32, i32, i32, i64, ptr }
%struct._zend_refcounted_h = type { i32, %union.anon.3 }
%union.anon.3 = type { i32 }
%union.anon.4 = type { i32 }
%union.anon.6 = type { ptr }
%struct.zend_get_gc_buffer = type { ptr, ptr, ptr }
%struct._zend_call_stack = type { ptr, i64 }
%struct._zend_ini_entry = type { ptr, ptr, ptr, ptr, ptr, ptr, ptr, ptr, i32, i8, i8, i8 }
%struct._zend_string = type { %struct._zend_refcounted_h, i64, i64, [1 x i8] }

@executor_globals = external global %struct._zend_executor_globals, align 8

; Function Attrs: nounwind uwtable
define double @zend_ini_double(ptr noundef %0, i64 noundef %1, i32 noundef %2) #0 {
  %4 = alloca ptr, align 8
  %5 = alloca ptr, align 8
  %6 = alloca ptr, align 8
  %7 = alloca i64, align 8
  %8 = alloca ptr, align 8
  %9 = alloca double, align 8
  %10 = alloca ptr, align 8
  %11 = alloca i64, align 8
  %12 = alloca i32, align 4
  %13 = alloca ptr, align 8
  store ptr %0, ptr %10, align 8
  store i64 %1, ptr %11, align 8
  store i32 %2, ptr %12, align 4
  %14 = load ptr, ptr getelementptr inbounds (%struct._zend_executor_globals, ptr @executor_globals, i32 0, i32 46), align 8
  %15 = load ptr, ptr %10, align 8
  %16 = load i64, ptr %11, align 8
  store ptr %14, ptr %5, align 8
  store ptr %15, ptr %6, align 8
  store i64 %16, ptr %7, align 8
  %17 = load ptr, ptr %5, align 8
  %18 = load ptr, ptr %6, align 8
  %19 = load i64, ptr %7, align 8
  %20 = call ptr @zend_hash_str_find(ptr noundef %17, ptr noundef %18, i64 noundef %19) #13
  store ptr %20, ptr %8, align 8
  %21 = load ptr, ptr %8, align 8
  %22 = icmp ne ptr %21, null
  br i1 %22, label %23, label %29

23:                                               ; preds = %3
  %24 = load ptr, ptr %8, align 8
  %25 = load ptr, ptr %24, align 8
  %26 = icmp ne ptr %25, null
  call void @llvm.assume(i1 %26)
  %27 = load ptr, ptr %8, align 8
  %28 = load ptr, ptr %27, align 8
  store ptr %28, ptr %4, align 8
  br label %30

29:                                               ; preds = %3
  store ptr null, ptr %4, align 8
  br label %30

30:                                               ; preds = %29, %23
  %31 = load ptr, ptr %4, align 8
  store ptr %31, ptr %13, align 8
  %32 = load ptr, ptr %13, align 8
  %33 = icmp ne ptr %32, null
  br i1 %33, label %34, label %73

34:                                               ; preds = %30
  %35 = load i32, ptr %12, align 4
  %36 = icmp ne i32 %35, 0
  br i1 %36, label %37, label %58

37:                                               ; preds = %34
  %38 = load ptr, ptr %13, align 8
  %39 = getelementptr inbounds %struct._zend_ini_entry, ptr %38, i32 0, i32 11
  %40 = load i8, ptr %39, align 2
  %41 = zext i8 %40 to i32
  %42 = icmp ne i32 %41, 0
  br i1 %42, label %43, label %58

43:                                               ; preds = %37
  %44 = load ptr, ptr %13, align 8
  %45 = getelementptr inbounds %struct._zend_ini_entry, ptr %44, i32 0, i32 6
  %46 = load ptr, ptr %45, align 8
  %47 = icmp ne ptr %46, null
  br i1 %47, label %48, label %55

48:                                               ; preds = %43
  %49 = load ptr, ptr %13, align 8
  %50 = getelementptr inbounds %struct._zend_ini_entry, ptr %49, i32 0, i32 6
  %51 = load ptr, ptr %50, align 8
  %52 = getelementptr inbounds %struct._zend_string, ptr %51, i32 0, i32 3
  %53 = getelementptr inbounds [1 x i8], ptr %52, i64 0, i64 0
  %54 = call double @zend_strtod(ptr noundef %53, ptr noundef null)
  br label %56

55:                                               ; preds = %43
  br label %56

56:                                               ; preds = %55, %48
  %57 = phi double [ %54, %48 ], [ 0.000000e+00, %55 ]
  store double %57, ptr %9, align 8
  br label %74

58:                                               ; preds = %37, %34
  %59 = load ptr, ptr %13, align 8
  %60 = getelementptr inbounds %struct._zend_ini_entry, ptr %59, i32 0, i32 5
  %61 = load ptr, ptr %60, align 8
  %62 = icmp ne ptr %61, null
  br i1 %62, label %63, label %70

63:                                               ; preds = %58
  %64 = load ptr, ptr %13, align 8
  %65 = getelementptr inbounds %struct._zend_ini_entry, ptr %64, i32 0, i32 5
  %66 = load ptr, ptr %65, align 8
  %67 = getelementptr inbounds %struct._zend_string, ptr %66, i32 0, i32 3
  %68 = getelementptr inbounds [1 x i8], ptr %67, i64 0, i64 0
  %69 = call double @zend_strtod(ptr noundef %68, ptr noundef null)
  br label %71

70:                                               ; preds = %58
  br label %71

71:                                               ; preds = %70, %63
  %72 = phi double [ %69, %63 ], [ 0.000000e+00, %70 ]
  store double %72, ptr %9, align 8
  br label %74

73:                                               ; preds = %30
  store double 0.000000e+00, ptr %9, align 8
  br label %74

74:                                               ; preds = %73, %71, %56
  %75 = load double, ptr %9, align 8
  ret double %75
}